; Function Attrs: mustprogress uwtable
define internal fastcc noundef ptr @"_ZZN14arith_rewriter13mk_power_coreEP4exprS1_R7obj_refIS0_11ast_managerEENK3$_0clES1_"(ptr nocapture readonly %this.0.val, ptr noundef nonnull %e) unnamed_addr #3 align 2 {
entry:
  %m_util = getelementptr inbounds i8, ptr %this.0.val, i64 8
  %call.i = tail call noundef ptr @_ZNK4expr8get_sortEv(ptr noundef nonnull align 4 dereferenceable(16) %e)
  %m_info.i.i.i.i.i = getelementptr inbounds i8, ptr %call.i, i64 24
  %0 = load ptr, ptr %m_info.i.i.i.i.i, align 8
  %cmp.i.i.i.i.i = icmp eq ptr %0, null
  br i1 %cmp.i.i.i.i.i, label %cond.end, label %_ZNK4decl13get_family_idEv.exit.thread.i.i.i.i

_ZNK4decl13get_family_idEv.exit.thread.i.i.i.i:   ; preds = %entry
  %1 = load i32, ptr %0, align 8
  %cmp6.i.i.i.i = icmp eq i32 %1, 5
  br i1 %cmp6.i.i.i.i, label %_ZNK17arith_recognizers6is_intEPK4expr.exit, label %cond.end

_ZNK17arith_recognizers6is_intEPK4expr.exit:      ; preds = %_ZNK4decl13get_family_idEv.exit.thread.i.i.i.i
  %m_kind.i.i.i.i.i.i = getelementptr inbounds i8, ptr %0, i64 4
  %2 = load i32, ptr %m_kind.i.i.i.i.i.i, align 4
  %cmp3.i.i.i.i = icmp eq i32 %2, 1
  br i1 %cmp3.i.i.i.i, label %cond.true, label %cond.end

cond.true:                                        ; preds = %_ZNK17arith_recognizers6is_intEPK4expr.exit
  %3 = load ptr, ptr %m_util, align 8
  %call.i3 = tail call noundef ptr @_ZN11ast_manager6mk_appEiiP4expr(ptr noundef nonnull align 8 dereferenceable(976) %3, i32 noundef 5, i32 noundef 18, ptr noundef nonnull %e)
  br label %cond.end

cond.end:                                         ; preds = %entry, %_ZNK4decl13get_family_idEv.exit.thread.i.i.i.i, %_ZNK17arith_recognizers6is_intEPK4expr.exit, %cond.true
  %cond = phi ptr [ %call.i3, %cond.true ], [ %e, %_ZNK17arith_recognizers6is_intEPK4expr.exit ], [ %e, %_ZNK4decl13get_family_idEv.exit.thread.i.i.i.i ], [ %e, %entry ]
  ret ptr %cond
}